target datalayout = "e-m:e-p270:32:32-p271:32:32-p272:64:64-i64:64-i128:128-f80:128-n8:16:32:64-S128"
target triple = "x86_64-pc-linux-gnu"

%struct.H5O_token_t = type { [16 x i8] }

@.str.34 = private unnamed_addr constant [2 x i8] c"/\00", align 1
@.str.96 = private unnamed_addr constant [7 x i8] c"xid_%s\00", align 1

; Function Attrs: nounwind uwtable
define internal i32 @xml_name_to_XID(i64 noundef %0, ptr noundef %1, ptr noundef %2, i32 noundef %3, i32 noundef %4) #0 {
  %6 = alloca i32, align 4
  %7 = alloca i64, align 8
  %8 = alloca ptr, align 8
  %9 = alloca ptr, align 8
  %10 = alloca i32, align 4
  %11 = alloca i32, align 4
  %12 = alloca %struct.H5O_token_t, align 1
  %13 = alloca ptr, align 8
  %14 = alloca i32, align 4
  %15 = alloca i32, align 4
  store i64 %0, ptr %7, align 8, !tbaa !4
  store ptr %1, ptr %8, align 8, !tbaa !21
  store ptr %2, ptr %9, align 8, !tbaa !21
  store i32 %3, ptr %10, align 4, !tbaa !11
  store i32 %4, ptr %11, align 4, !tbaa !11
  call void @llvm.lifetime.start.p0(i64 16, ptr %12) #9
  call void @llvm.lifetime.start.p0(i64 8, ptr %13) #9
  store ptr null, ptr %13, align 8, !tbaa !21
  call void @llvm.lifetime.start.p0(i64 4, ptr %14) #9
  %16 = load i32, ptr %10, align 4, !tbaa !11
  %17 = icmp slt i32 %16, 22
  br i1 %17, label %18, label %19

18:                                               ; preds = %5
  store i32 1, ptr %6, align 4
  store i32 1, ptr %15, align 4
  br label %74

19:                                               ; preds = %5
  %20 = load ptr, ptr %8, align 8, !tbaa !21
  %21 = call i32 @ref_path_table_lookup(ptr noundef %20, ptr noundef %12)
  store i32 %21, ptr %14, align 4, !tbaa !11
  %22 = load i32, ptr %14, align 4, !tbaa !11
  %23 = icmp slt i32 %22, 0
  br i1 %23, label %24, label %64

24:                                               ; preds = %19
  %25 = load ptr, ptr %8, align 8, !tbaa !21
  %26 = call i64 @strlen(ptr noundef %25) #11
  %27 = icmp eq i64 %26, 0
  br i1 %27, label %28, label %48

28:                                               ; preds = %24
  %29 = call i32 @ref_path_table_lookup(ptr noundef @.str.34, ptr noundef %12)
  store i32 %29, ptr %14, align 4, !tbaa !11
  %30 = load i32, ptr %14, align 4, !tbaa !11
  %31 = icmp slt i32 %30, 0
  br i1 %31, label %32, label %47

32:                                               ; preds = %28
  %33 = load i32, ptr %11, align 4, !tbaa !11
  %34 = icmp ne i32 %33, 0
  br i1 %34, label %35, label %46

35:                                               ; preds = %32
  %36 = load ptr, ptr %8, align 8, !tbaa !21
  call void @ref_path_table_gen_fake(ptr noundef %36, ptr noundef %12)
  %37 = load i64, ptr %7, align 8, !tbaa !4
  %38 = call i32 @H5Otoken_to_str(i64 noundef %37, ptr noundef %12, ptr noundef %13)
  %39 = load ptr, ptr %9, align 8, !tbaa !21
  %40 = load i32, ptr %10, align 4, !tbaa !11
  %41 = sext i32 %40 to i64
  %42 = load ptr, ptr %13, align 8, !tbaa !21
  %43 = call i32 (ptr, i64, ptr, ...) @snprintf(ptr noundef %39, i64 noundef %41, ptr noundef @.str.96, ptr noundef %42) #9
  %44 = load ptr, ptr %13, align 8, !tbaa !21
  %45 = call i32 @H5free_memory(ptr noundef %44)
  store i32 0, ptr %6, align 4
  store i32 1, ptr %15, align 4
  br label %74

46:                                               ; preds = %32
  store i32 1, ptr %6, align 4
  store i32 1, ptr %15, align 4
  br label %74

47:                                               ; preds = %28
  br label %63

48:                                               ; preds = %24
  %49 = load i32, ptr %11, align 4, !tbaa !11
  %50 = icmp ne i32 %49, 0
  br i1 %50, label %51, label %62

51:                                               ; preds = %48
  %52 = load ptr, ptr %8, align 8, !tbaa !21
  call void @ref_path_table_gen_fake(ptr noundef %52, ptr noundef %12)
  %53 = load i64, ptr %7, align 8, !tbaa !4
  %54 = call i32 @H5Otoken_to_str(i64 noundef %53, ptr noundef %12, ptr noundef %13)
  %55 = load ptr, ptr %9, align 8, !tbaa !21
  %56 = load i32, ptr %10, align 4, !tbaa !11
  %57 = sext i32 %56 to i64
  %58 = load ptr, ptr %13, align 8, !tbaa !21
  %59 = call i32 (ptr, i64, ptr, ...) @snprintf(ptr noundef %55, i64 noundef %57, ptr noundef @.str.96, ptr noundef %58) #9
  %60 = load ptr, ptr %13, align 8, !tbaa !21
  %61 = call i32 @H5free_memory(ptr noundef %60)
  store i32 0, ptr %6, align 4
  store i32 1, ptr %15, align 4
  br label %74

62:                                               ; preds = %48
  store i32 1, ptr %6, align 4
  store i32 1, ptr %15, align 4
  br label %74

63:                                               ; preds = %47
  br label %64

64:                                               ; preds = %63, %19
  %65 = load i64, ptr %7, align 8, !tbaa !4
  %66 = call i32 @H5Otoken_to_str(i64 noundef %65, ptr noundef %12, ptr noundef %13)
  %67 = load ptr, ptr %9, align 8, !tbaa !21
  %68 = load i32, ptr %10, align 4, !tbaa !11
  %69 = sext i32 %68 to i64
  %70 = load ptr, ptr %13, align 8, !tbaa !21
  %71 = call i32 (ptr, i64, ptr, ...) @snprintf(ptr noundef %67, i64 noundef %69, ptr noundef @.str.96, ptr noundef %70) #9
  %72 = load ptr, ptr %13, align 8, !tbaa !21
  %73 = call i32 @H5free_memory(ptr noundef %72)
  store i32 0, ptr %6, align 4
  store i32 1, ptr %15, align 4
  br label %74

74:                                               ; preds = %64, %62, %51, %46, %35, %18
  call void @llvm.lifetime.end.p0(i64 4, ptr %14) #9
  call void @llvm.lifetime.end.p0(i64 8, ptr %13) #9
  call void @llvm.lifetime.end.p0(i64 16, ptr %12) #9
  %75 = load i32, ptr %6, align 4
  ret i32 %75
}