; Function Attrs: nounwind uwtable
define internal fastcc void @xml_name_to_XID(i64 noundef %0, ptr noundef %1, ptr noundef writeonly captures(none) %2, i32 noundef range(i32 0, 2) %3) unnamed_addr #0 {
  %5 = alloca %struct.H5O_token_t, align 1
  %6 = alloca ptr, align 8
  call void @llvm.lifetime.start.p0(i64 16, ptr nonnull %5) #14
  call void @llvm.lifetime.start.p0(i64 8, ptr nonnull %6) #14
  store ptr null, ptr %6, align 8, !tbaa !18
  %7 = call i32 @ref_path_table_lookup(ptr noundef %1, ptr noundef nonnull %5) #14
  %8 = icmp slt i32 %7, 0
  br i1 %8, label %9, label %.sink.split

9:                                                ; preds = %4
  %char0 = load i8, ptr %1, align 1
  %10 = icmp eq i8 %char0, 0
  br i1 %10, label %11, label %15

11:                                               ; preds = %9
  %12 = call i32 @ref_path_table_lookup(ptr noundef nonnull @.str.34, ptr noundef nonnull %5) #14
  %13 = icmp slt i32 %12, 0
  br i1 %13, label %14, label %.sink.split

14:                                               ; preds = %11
  %.not19 = icmp eq i32 %3, 0
  br i1 %.not19, label %21, label %.sink.split.sink.split

15:                                               ; preds = %9
  %.not = icmp eq i32 %3, 0
  br i1 %.not, label %21, label %.sink.split.sink.split

.sink.split.sink.split:                           ; preds = %15, %14
  call void @ref_path_table_gen_fake(ptr noundef nonnull %1, ptr noundef nonnull %5) #14
  br label %.sink.split

.sink.split:                                      ; preds = %.sink.split.sink.split, %4, %11
  %16 = call i32 @H5Otoken_to_str(i64 noundef %0, ptr noundef nonnull %5, ptr noundef nonnull %6) #14
  %17 = load ptr, ptr %6, align 8, !tbaa !18
  %18 = call i32 (ptr, i64, ptr, ...) @snprintf(ptr noundef nonnull dereferenceable(1) %2, i64 noundef 100, ptr noundef nonnull @.str.96, ptr noundef %17) #14
  %19 = load ptr, ptr %6, align 8, !tbaa !18
  %20 = call i32 @H5free_memory(ptr noundef %19) #14
  br label %21

21:                                               ; preds = %.sink.split, %15, %14
  call void @llvm.lifetime.end.p0(i64 8, ptr nonnull %6) #14
  call void @llvm.lifetime.end.p0(i64 16, ptr nonnull %5) #14
  ret void
}